target datalayout = "e-m:e-p270:32:32-p271:32:32-p272:64:64-i64:64-i128:128-f80:128-n8:16:32:64-S128"
target triple = "x86_64-pc-linux-gnu"

@.str.52 = private unnamed_addr constant [22 x i8] c"invalid upvalue index\00", align 1

; Function Attrs: nounwind uwtable
define internal ptr @checkupval(ptr noundef %0, i32 noundef %1, i32 noundef %2, ptr noundef %3) #0 {
  %5 = alloca ptr, align 8
  %6 = alloca i32, align 4
  %7 = alloca i32, align 4
  %8 = alloca ptr, align 8
  %9 = alloca ptr, align 8
  %10 = alloca i32, align 4
  store ptr %0, ptr %5, align 8, !tbaa !4
  store i32 %1, ptr %6, align 4, !tbaa !11
  store i32 %2, ptr %7, align 4, !tbaa !11
  store ptr %3, ptr %8, align 8, !tbaa !35
  call void @llvm.lifetime.start.p0(i64 8, ptr %9) #6
  call void @llvm.lifetime.start.p0(i64 4, ptr %10) #6
  %11 = load ptr, ptr %5, align 8, !tbaa !4
  %12 = load i32, ptr %7, align 4, !tbaa !11
  %13 = call i64 @luaL_checkinteger(ptr noundef %11, i32 noundef %12)
  %14 = trunc i64 %13 to i32
  store i32 %14, ptr %10, align 4, !tbaa !11
  %15 = load ptr, ptr %5, align 8, !tbaa !4
  %16 = load i32, ptr %6, align 4, !tbaa !11
  call void @luaL_checktype(ptr noundef %15, i32 noundef %16, i32 noundef 6)
  %17 = load ptr, ptr %5, align 8, !tbaa !4
  %18 = load i32, ptr %6, align 4, !tbaa !11
  %19 = load i32, ptr %10, align 4, !tbaa !11
  %20 = call ptr @lua_upvalueid(ptr noundef %17, i32 noundef %18, i32 noundef %19)
  store ptr %20, ptr %9, align 8, !tbaa !13
  %21 = load ptr, ptr %8, align 8, !tbaa !35
  %22 = icmp ne ptr %21, null
  br i1 %22, label %23, label %39

23:                                               ; preds = %4
  %24 = load ptr, ptr %9, align 8, !tbaa !13
  %25 = icmp ne ptr %24, null
  %26 = zext i1 %25 to i32
  %27 = icmp ne i32 %26, 0
  %28 = zext i1 %27 to i32
  %29 = sext i32 %28 to i64
  %30 = call i64 @llvm.expect.i64(i64 %29, i64 1)
  %31 = icmp ne i64 %30, 0
  br i1 %31, label %36, label %32

32:                                               ; preds = %23
  %33 = load ptr, ptr %5, align 8, !tbaa !4
  %34 = load i32, ptr %7, align 4, !tbaa !11
  %35 = call i32 @luaL_argerror(ptr noundef %33, i32 noundef %34, ptr noundef @.str.52)
  br label %36

36:                                               ; preds = %32, %23
  %37 = load i32, ptr %10, align 4, !tbaa !11
  %38 = load ptr, ptr %8, align 8, !tbaa !35
  store i32 %37, ptr %38, align 4, !tbaa !11
  br label %39

39:                                               ; preds = %36, %4
  %40 = load ptr, ptr %9, align 8, !tbaa !13
  call void @llvm.lifetime.end.p0(i64 4, ptr %10) #6
  call void @llvm.lifetime.end.p0(i64 8, ptr %9) #6
  ret ptr %40
}

; Function Attrs: nounwind uwtable
define internal i32 @db_upvalueid(ptr noundef %0) #0 {
  %2 = alloca ptr, align 8
  %3 = alloca ptr, align 8
  store ptr %0, ptr %2, align 8, !tbaa !4
  call void @llvm.lifetime.start.p0(i64 8, ptr %3) #6
  %4 = load ptr, ptr %2, align 8, !tbaa !4
  %5 = call ptr @checkupval(ptr noundef %4, i32 noundef 1, i32 noundef 2, ptr noundef null)
  store ptr %5, ptr %3, align 8, !tbaa !13
  %6 = load ptr, ptr %3, align 8, !tbaa !13
  %7 = icmp ne ptr %6, null
  br i1 %7, label %8, label %11

8:                                                ; preds = %1
  %9 = load ptr, ptr %2, align 8, !tbaa !4
  %10 = load ptr, ptr %3, align 8, !tbaa !13
  call void @lua_pushlightuserdata(ptr noundef %9, ptr noundef %10)
  br label %13

11:                                               ; preds = %1
  %12 = load ptr, ptr %2, align 8, !tbaa !4
  call void @lua_pushnil(ptr noundef %12)
  br label %13

13:                                               ; preds = %11, %8
  call void @llvm.lifetime.end.p0(i64 8, ptr %3) #6
  ret i32 1
}