; Function Attrs: nounwind uwtable
define internal noundef i32 @db_upvalueid(ptr noundef %0) #0 {
  %2 = tail call i64 @luaL_checkinteger(ptr noundef %0, i32 noundef 2) #8
  %3 = trunc i64 %2 to i32
  tail call void @luaL_checktype(ptr noundef %0, i32 noundef 1, i32 noundef 6) #8
  %4 = tail call ptr @lua_upvalueid(ptr noundef %0, i32 noundef 1, i32 noundef %3) #8
  %.not = icmp eq ptr %4, null
  br i1 %.not, label %6, label %5

5:                                                ; preds = %1
  tail call void @lua_pushlightuserdata(ptr noundef %0, ptr noundef nonnull %4) #8
  br label %7

6:                                                ; preds = %1
  tail call void @lua_pushnil(ptr noundef %0) #8
  br label %7

7:                                                ; preds = %6, %5
  ret i32 1
}